(igplib
node
p0
(dp1
S'function'
p2
cdefaults
add
p3
sS'branches'
p4
(lp5
(igplib
node
p6
(dp7
g2
cdefaults
square
p8
sg4
(lp9
(igplib
node
p10
(dp11
g2
g3
sg4
(lp12
(igplib
node
p13
(dp14
g2
cdefaults
sub
p15
sg4
(lp16
(igplib
constant
p17
(dp18
S'name'
p19
S'constant 2'
p20
sS'value'
p21
I2
sba(igplib
variable
p22
(dp23
S'index'
p24
I1
sg19
S'variable element 1'
p25
sbasg19
S'sub'
p26
sS'childcount'
p27
I2
sba(igplib
node
p28
(dp29
g2
cdefaults
isgreater
p30
sg4
(lp31
(igplib
variable
p32
(dp33
g24
I2
sg19
S'variable element 2'
p34
sba(igplib
constant
p35
(dp36
g19
S'constant 7'
p37
sg21
I7
sbasg19
S'is greater'
p38
sg27
I2
sbasg19
S'add'
p39
sg27
I2
sbasg19
S'square'
p40
sg27
I1
sba(igplib
node
p41
(dp42
g2
g30
sg4
(lp43
(igplib
node
p44
(dp45
g2
cdefaults
mul
p46
sg4
(lp47
(igplib
variable
p48
(dp49
g24
I1
sg19
S'variable element 1'
p50
sba(igplib
constant
p51
(dp52
g19
S'constant 9'
p53
sg21
I9
sbasg19
S'mul'
p54
sg27
I2
sba(igplib
node
p55
(dp56
g2
g8
sg4
(lp57
(igplib
variable
p58
(dp59
g24
I1
sg19
S'variable element 1'
p60
sbasg19
g40
sg27
I1
sbasg19
g38
sg27
I2
sbasg19
g39
sg27
I2
sb.