(igplib
node
p0
(dp1
S'function'
p2
cdefaults
sub
p3
sS'branches'
p4
(lp5
(igplib
node
p6
(dp7
g2
cdefaults
mul
p8
sg4
(lp9
(igplib
node
p10
(dp11
g2
cdefaults
square
p12
sg4
(lp13
(igplib
node
p14
(dp15
g2
g3
sg4
(lp16
(igplib
node
p17
(dp18
g2
g3
sg4
(lp19
(igplib
variable
p20
(dp21
S'index'
p22
I1
sS'name'
p23
S'variable element 1'
p24
sba(igplib
variable
p25
(dp26
g22
I2
sg23
S'variable element 2'
p27
sbasg23
S'sub'
p28
sS'childcount'
p29
I2
sba(igplib
variable
p30
(dp31
g22
I0
sg23
S'variable element 0'
p32
sbasg23
g28
sg29
I2
sbasg23
S'square'
p33
sg29
I1
sba(igplib
node
p34
(dp35
g2
cdefaults
add
p36
sg4
(lp37
(igplib
variable
p38
(dp39
g22
I1
sg23
S'variable element 1'
p40
sba(igplib
node
p41
(dp42
g2
g36
sg4
(lp43
(igplib
variable
p44
(dp45
g22
I1
sg23
S'variable element 1'
p46
sba(igplib
node
p47
(dp48
g2
cdefaults
isgreater
p49
sg4
(lp50
(igplib
variable
p51
(dp52
g22
I1
sg23
S'variable element 1'
p53
sba(igplib
variable
p54
(dp55
g22
I2
sg23
S'variable element 2'
p56
sbasg23
S'is greater'
p57
sg29
I2
sbasg23
S'add'
p58
sg29
I2
sbasg23
g58
sg29
I2
sbasg23
S'mul'
p59
sg29
I2
sba(igplib
variable
p60
(dp61
g22
I0
sg23
S'variable element 0'
p62
sbasg23
g28
sg29
I2
sb.