(igplib
node
p0
(dp1
S'function'
p2
cdefaults
isgreater
p3
sS'branches'
p4
(lp5
(igplib
node
p6
(dp7
g2
cdefaults
sub
p8
sg4
(lp9
(igplib
constant
p10
(dp11
S'name'
p12
S'constant 10'
p13
sS'value'
p14
I10
sba(igplib
constant
p15
(dp16
g12
S'constant 7'
p17
sg14
I7
sbasg12
S'sub'
p18
sS'childcount'
p19
I2
sba(igplib
node
p20
(dp21
g2
g8
sg4
(lp22
(igplib
node
p23
(dp24
g2
g8
sg4
(lp25
(igplib
node
p26
(dp27
g2
cdefaults
mul
p28
sg4
(lp29
(igplib
constant
p30
(dp31
g12
S'constant 1'
p32
sg14
I1
sba(igplib
node
p33
(dp34
g2
cdefaults
add
p35
sg4
(lp36
(igplib
variable
p37
(dp38
S'index'
p39
I2
sg12
S'variable element 2'
p40
sba(igplib
node
p41
(dp42
g2
g28
sg4
(lp43
(igplib
node
p44
(dp45
g2
g3
sg4
(lp46
(igplib
constant
p47
(dp48
g12
S'constant 8'
p49
sg14
I8
sba(igplib
variable
p50
(dp51
g39
I2
sg12
S'variable element 2'
p52
sbasg12
S'is greater'
p53
sg19
I2
sba(igplib
node
p54
(dp55
g2
g3
sg4
(lp56
(igplib
variable
p57
(dp58
g39
I2
sg12
S'variable element 2'
p59
sba(igplib
variable
p60
(dp61
g39
I2
sg12
S'variable element 2'
p62
sbasg12
g53
sg19
I2
sbasg12
S'mul'
p63
sg19
I2
sbasg12
S'add'
p64
sg19
I2
sbasg12
g63
sg19
I2
sba(igplib
variable
p65
(dp66
g39
I0
sg12
S'variable element 0'
p67
sbasg12
g18
sg19
I2
sba(igplib
node
p68
(dp69
g2
g35
sg4
(lp70
(igplib
variable
p71
(dp72
g39
I0
sg12
S'variable element 0'
p73
sba(igplib
node
p74
(dp75
g2
g8
sg4
(lp76
(igplib
variable
p77
(dp78
g39
I2
sg12
S'variable element 2'
p79
sba(igplib
variable
p80
(dp81
g39
I1
sg12
S'variable element 1'
p82
sbasg12
g18
sg19
I2
sbasg12
g64
sg19
I2
sbasg12
g18
sg19
I2
sbasg12
g53
sg19
I2
sb.