(igplib
node
p0
(dp1
S'function'
p2
cdefaults
add
p3
sS'branches'
p4
(lp5
(igplib
node
p6
(dp7
g2
cdefaults
isgreater
p8
sg4
(lp9
(igplib
node
p10
(dp11
g2
cdefaults
square
p12
sg4
(lp13
(igplib
variable
p14
(dp15
S'index'
p16
I2
sS'name'
p17
S'variable element 2'
p18
sbasg17
S'square'
p19
sS'childcount'
p20
I1
sba(igplib
variable
p21
(dp22
g16
I1
sg17
S'variable element 1'
p23
sbasg17
S'is greater'
p24
sg20
I2
sba(igplib
constant
p25
(dp26
g17
S'constant 9'
p27
sS'value'
p28
I9
sbasg17
S'add'
p29
sg20
I2
sb.