(igplib
node
p0
(dp1
S'function'
p2
cdefaults
isgreater
p3
sS'branches'
p4
(lp5
(igplib
variable
p6
(dp7
S'index'
p8
I0
sS'name'
p9
S'variable element 0'
p10
sba(igplib
node
p11
(dp12
g2
cdefaults
add
p13
sg4
(lp14
(igplib
variable
p15
(dp16
g8
I2
sg9
S'variable element 2'
p17
sba(igplib
node
p18
(dp19
g2
g13
sg4
(lp20
(igplib
node
p21
(dp22
g2
g13
sg4
(lp23
(igplib
variable
p24
(dp25
g8
I1
sg9
S'variable element 1'
p26
sba(igplib
node
p27
(dp28
g2
cdefaults
sub
p29
sg4
(lp30
(igplib
node
p31
(dp32
g2
g3
sg4
(lp33
(igplib
constant
p34
(dp35
g9
S'constant 8'
p36
sS'value'
p37
I8
sba(igplib
constant
p38
(dp39
g9
S'constant 1'
p40
sg37
I1
sbasg9
S'is greater'
p41
sS'childcount'
p42
I2
sba(igplib
node
p43
(dp44
g2
g3
sg4
(lp45
(igplib
node
p46
(dp47
g2
g29
sg4
(lp48
(igplib
node
p49
(dp50
g2
g29
sg4
(lp51
(igplib
variable
p52
(dp53
g8
I1
sg9
S'variable element 1'
p54
sba(igplib
constant
p55
(dp56
g9
S'constant 8'
p57
sg37
I8
sbasg9
S'sub'
p58
sg42
I2
sba(igplib
constant
p59
(dp60
g9
S'constant 1'
p61
sg37
I1
sbasg9
g58
sg42
I2
sba(igplib
constant
p62
(dp63
g9
S'constant 10'
p64
sg37
I10
sbasg9
g41
sg42
I2
sbasg9
g58
sg42
I2
sbasg9
S'add'
p65
sg42
I2
sba(igplib
variable
p66
(dp67
g8
I1
sg9
S'variable element 1'
p68
sbasg9
g65
sg42
I2
sbasg9
g65
sg42
I2
sbasg9
g41
sg42
I2
sb.